target datalayout = "e-m:e-p270:32:32-p271:32:32-p272:64:64-i64:64-i128:128-f80:128-n8:16:32:64-S128"
target triple = "x86_64-unknown-linux-gnu"

%"class.std::__shared_count" = type { ptr }
%"class.std::vector.55" = type { %"struct.std::_Vector_base.56" }
%"struct.std::_Vector_base.56" = type { %"struct.std::_Vector_base<unsigned long, std::allocator<unsigned long>>::_Vector_impl" }
%"struct.std::_Vector_base<unsigned long, std::allocator<unsigned long>>::_Vector_impl" = type { %"struct.std::_Vector_base<unsigned long, std::allocator<unsigned long>>::_Vector_impl_data" }
%"struct.std::_Vector_base<unsigned long, std::allocator<unsigned long>>::_Vector_impl_data" = type { ptr, ptr, ptr }
%"class.facebook::velox::DecodedVector" = type { i32, ptr, ptr, ptr, %"class.std::optional.106", ptr, i8, i8, i8, i8, i8, i32, %"class.std::vector.114", %"class.std::vector.55" }
%"class.std::optional.106" = type { %"struct.std::_Optional_base.107" }
%"struct.std::_Optional_base.107" = type { %"struct.std::_Optional_payload.109" }
%"struct.std::_Optional_payload.109" = type { %"struct.std::_Optional_payload_base.base.111", [7 x i8] }
%"struct.std::_Optional_payload_base.base.111" = type <{ %"union.std::_Optional_payload_base<const unsigned long *>::_Storage", i8 }>
%"union.std::_Optional_payload_base<const unsigned long *>::_Storage" = type { ptr }
%"class.std::vector.114" = type { %"struct.std::_Vector_base.115" }
%"struct.std::_Vector_base.115" = type { %"struct.std::_Vector_base<int, std::allocator<int>>::_Vector_impl" }
%"struct.std::_Vector_base<int, std::allocator<int>>::_Vector_impl" = type { %"struct.std::_Vector_base<int, std::allocator<int>>::_Vector_impl_data" }
%"struct.std::_Vector_base<int, std::allocator<int>>::_Vector_impl_data" = type { ptr, ptr, ptr }
%"class.std::__shared_ptr.222" = type { ptr, %"class.std::__shared_count" }
%class.anon.224 = type { ptr, ptr, ptr, ptr, ptr, ptr, ptr, ptr }

; Function Attrs: mustprogress nounwind uwtable
define linkonce_odr noundef ptr @_ZNKSt12__shared_ptrIN8facebook5velox9MapVectorELN9__gnu_cxx12_Lock_policyE2EE3getEv(ptr noundef nonnull align 8 dereferenceable(16) %this) #2 comdat align 2 {
entry:
  %this.addr = alloca ptr, align 8
  store ptr %this, ptr %this.addr, align 8
  %this1 = load ptr, ptr %this.addr, align 8
  %_M_ptr = getelementptr inbounds %"class.std::__shared_ptr.222", ptr %this1, i32 0, i32 0
  %0 = load ptr, ptr %_M_ptr, align 8
  ret ptr %0
}

; Function Attrs: mustprogress nounwind uwtable
define linkonce_odr noundef zeroext i1 @_ZN8facebook5velox4bits8isBitSetImEEbPKT_i(ptr noundef %bits, i32 noundef %idx) #2 comdat {
entry:
  %bits.addr = alloca ptr, align 8
  %idx.addr = alloca i32, align 4
  store ptr %bits, ptr %bits.addr, align 8
  store i32 %idx, ptr %idx.addr, align 4
  %0 = load ptr, ptr %bits.addr, align 8
  %1 = load i32, ptr %idx.addr, align 4
  %conv = sext i32 %1 to i64
  %div = udiv i64 %conv, 64
  %arrayidx = getelementptr inbounds i64, ptr %0, i64 %div
  %2 = load i64, ptr %arrayidx, align 8
  %3 = load i32, ptr %idx.addr, align 4
  %conv1 = sext i32 %3 to i64
  %and = and i64 %conv1, 63
  %shl = shl i64 1, %and
  %and2 = and i64 %2, %shl
  %tobool = icmp ne i64 %and2, 0
  ret i1 %tobool
}

; Function Attrs: mustprogress nounwind uwtable
define linkonce_odr noundef i32 @_ZNK8facebook5velox13DecodedVector5indexEi(ptr noundef nonnull align 8 dereferenceable(120) %this, i32 noundef %idx) #2 comdat align 2 {
entry:
  %retval = alloca i32, align 4
  %this.addr = alloca ptr, align 8
  %idx.addr = alloca i32, align 4
  store ptr %this, ptr %this.addr, align 8
  store i32 %idx, ptr %idx.addr, align 4
  %this1 = load ptr, ptr %this.addr, align 8
  %isIdentityMapping_ = getelementptr inbounds %"class.facebook::velox::DecodedVector", ptr %this1, i32 0, i32 8
  %0 = load i8, ptr %isIdentityMapping_, align 2
  %tobool = trunc i8 %0 to i1
  br i1 %tobool, label %if.then, label %if.end

if.then:                                          ; preds = %entry
  %1 = load i32, ptr %idx.addr, align 4
  store i32 %1, ptr %retval, align 4
  br label %return

if.end:                                           ; preds = %entry
  %isConstantMapping_ = getelementptr inbounds %"class.facebook::velox::DecodedVector", ptr %this1, i32 0, i32 9
  %2 = load i8, ptr %isConstantMapping_, align 1
  %tobool2 = trunc i8 %2 to i1
  br i1 %tobool2, label %if.then3, label %if.end4

if.then3:                                         ; preds = %if.end
  %constantIndex_ = getelementptr inbounds %"class.facebook::velox::DecodedVector", ptr %this1, i32 0, i32 11
  %3 = load i32, ptr %constantIndex_, align 8
  store i32 %3, ptr %retval, align 4
  br label %return

if.end4:                                          ; preds = %if.end
  %indices_ = getelementptr inbounds %"class.facebook::velox::DecodedVector", ptr %this1, i32 0, i32 1
  %4 = load ptr, ptr %indices_, align 8
  %5 = load i32, ptr %idx.addr, align 4
  %idxprom = sext i32 %5 to i64
  %arrayidx = getelementptr inbounds i32, ptr %4, i64 %idxprom
  %6 = load i32, ptr %arrayidx, align 4
  store i32 %6, ptr %retval, align 4
  br label %return

return:                                           ; preds = %if.end4, %if.then3, %if.then
  %7 = load i32, ptr %retval, align 4
  ret i32 %7
}

; Function Attrs: mustprogress uwtable
define linkonce_odr noundef zeroext i1 @_ZN8facebook5velox4bits9isBitNullEPKmi(ptr noundef %bits, i32 noundef %index) #0 comdat {
entry:
  %bits.addr = alloca ptr, align 8
  %index.addr = alloca i32, align 4
  store ptr %bits, ptr %bits.addr, align 8
  store i32 %index, ptr %index.addr, align 4
  %0 = load ptr, ptr %bits.addr, align 8
  %1 = load i32, ptr %index.addr, align 4
  %call = call noundef zeroext i1 @_ZN8facebook5velox4bits8isBitSetImEEbPKT_i(ptr noundef %0, i32 noundef %1)
  %conv = zext i1 %call to i32
  %cmp = icmp eq i32 %conv, 0
  ret i1 %cmp
}

; Function Attrs: mustprogress nounwind uwtable
define linkonce_odr noundef ptr @_ZNKSt19__shared_ptr_accessIN8facebook5velox9MapVectorELN9__gnu_cxx12_Lock_policyE2ELb0ELb0EE6_M_getEv(ptr noundef nonnull align 1 dereferenceable(1) %this) #2 comdat align 2 {
entry:
  %this.addr = alloca ptr, align 8
  store ptr %this, ptr %this.addr, align 8
  %this1 = load ptr, ptr %this.addr, align 8
  %call = call noundef ptr @_ZNKSt12__shared_ptrIN8facebook5velox9MapVectorELN9__gnu_cxx12_Lock_policyE2EE3getEv(ptr noundef nonnull align 8 dereferenceable(16) %this1) #16
  ret ptr %call
}

; Function Attrs: mustprogress uwtable
define linkonce_odr noundef zeroext i1 @_ZNK8facebook5velox13DecodedVector7valueAtIbEET_i(ptr noundef nonnull align 8 dereferenceable(120) %this, i32 noundef %idx) #0 comdat align 2 {
entry:
  %this.addr = alloca ptr, align 8
  %idx.addr = alloca i32, align 4
  store ptr %this, ptr %this.addr, align 8
  store i32 %idx, ptr %idx.addr, align 4
  %this1 = load ptr, ptr %this.addr, align 8
  %data_ = getelementptr inbounds %"class.facebook::velox::DecodedVector", ptr %this1, i32 0, i32 2
  %0 = load ptr, ptr %data_, align 8
  %1 = load i32, ptr %idx.addr, align 4
  %call = call noundef i32 @_ZNK8facebook5velox13DecodedVector5indexEi(ptr noundef nonnull align 8 dereferenceable(120) %this1, i32 noundef %1)
  %call2 = call noundef zeroext i1 @_ZN8facebook5velox4bits8isBitSetImEEbPKT_i(ptr noundef %0, i32 noundef %call)
  ret i1 %call2
}

; Function Attrs: mustprogress uwtable
define linkonce_odr noundef zeroext i1 @_ZNK8facebook5velox13DecodedVector8isNullAtEi(ptr noundef nonnull align 8 dereferenceable(120) %this, i32 noundef %idx) #0 comdat align 2 {
entry:
  %retval = alloca i1, align 1
  %this.addr = alloca ptr, align 8
  %idx.addr = alloca i32, align 4
  store ptr %this, ptr %this.addr, align 8
  store i32 %idx, ptr %idx.addr, align 4
  %this1 = load ptr, ptr %this.addr, align 8
  %nulls_ = getelementptr inbounds %"class.facebook::velox::DecodedVector", ptr %this1, i32 0, i32 3
  %0 = load ptr, ptr %nulls_, align 8
  %tobool = icmp ne ptr %0, null
  br i1 %tobool, label %if.end, label %if.then

if.then:                                          ; preds = %entry
  store i1 false, ptr %retval, align 1
  br label %return

if.end:                                           ; preds = %entry
  %isIdentityMapping_ = getelementptr inbounds %"class.facebook::velox::DecodedVector", ptr %this1, i32 0, i32 8
  %1 = load i8, ptr %isIdentityMapping_, align 2
  %tobool2 = trunc i8 %1 to i1
  br i1 %tobool2, label %if.then4, label %lor.lhs.false

lor.lhs.false:                                    ; preds = %if.end
  %hasExtraNulls_ = getelementptr inbounds %"class.facebook::velox::DecodedVector", ptr %this1, i32 0, i32 7
  %2 = load i8, ptr %hasExtraNulls_, align 1
  %tobool3 = trunc i8 %2 to i1
  br i1 %tobool3, label %if.then4, label %if.end6

if.then4:                                         ; preds = %lor.lhs.false, %if.end
  %nulls_5 = getelementptr inbounds %"class.facebook::velox::DecodedVector", ptr %this1, i32 0, i32 3
  %3 = load ptr, ptr %nulls_5, align 8
  %4 = load i32, ptr %idx.addr, align 4
  %call = call noundef zeroext i1 @_ZN8facebook5velox4bits9isBitNullEPKmi(ptr noundef %3, i32 noundef %4)
  store i1 %call, ptr %retval, align 1
  br label %return

if.end6:                                          ; preds = %lor.lhs.false
  %isConstantMapping_ = getelementptr inbounds %"class.facebook::velox::DecodedVector", ptr %this1, i32 0, i32 9
  %5 = load i8, ptr %isConstantMapping_, align 1
  %tobool7 = trunc i8 %5 to i1
  br i1 %tobool7, label %if.then8, label %if.end11

if.then8:                                         ; preds = %if.end6
  %nulls_9 = getelementptr inbounds %"class.facebook::velox::DecodedVector", ptr %this1, i32 0, i32 3
  %6 = load ptr, ptr %nulls_9, align 8
  %call10 = call noundef zeroext i1 @_ZN8facebook5velox4bits9isBitNullEPKmi(ptr noundef %6, i32 noundef 0)
  store i1 %call10, ptr %retval, align 1
  br label %return

if.end11:                                         ; preds = %if.end6
  %nulls_12 = getelementptr inbounds %"class.facebook::velox::DecodedVector", ptr %this1, i32 0, i32 3
  %7 = load ptr, ptr %nulls_12, align 8
  %indices_ = getelementptr inbounds %"class.facebook::velox::DecodedVector", ptr %this1, i32 0, i32 1
  %8 = load ptr, ptr %indices_, align 8
  %9 = load i32, ptr %idx.addr, align 4
  %idxprom = sext i32 %9 to i64
  %arrayidx = getelementptr inbounds i32, ptr %8, i64 %idxprom
  %10 = load i32, ptr %arrayidx, align 4
  %call13 = call noundef zeroext i1 @_ZN8facebook5velox4bits9isBitNullEPKmi(ptr noundef %7, i32 noundef %10)
  store i1 %call13, ptr %retval, align 1
  br label %return

return:                                           ; preds = %if.end11, %if.then8, %if.then4, %if.then
  %11 = load i1, ptr %retval, align 1
  ret i1 %11
}

; Function Attrs: mustprogress nounwind uwtable
define linkonce_odr noundef ptr @_ZNKSt19__shared_ptr_accessIN8facebook5velox9MapVectorELN9__gnu_cxx12_Lock_policyE2ELb0ELb0EEptEv(ptr noundef nonnull align 1 dereferenceable(1) %this) #2 comdat align 2 {
entry:
  %this.addr = alloca ptr, align 8
  store ptr %this, ptr %this.addr, align 8
  %this1 = load ptr, ptr %this.addr, align 8
  %call = call noundef ptr @_ZNKSt19__shared_ptr_accessIN8facebook5velox9MapVectorELN9__gnu_cxx12_Lock_policyE2ELb0ELb0EE6_M_getEv(ptr noundef nonnull align 1 dereferenceable(1) %this1) #16
  ret ptr %call
}

; Function Attrs: mustprogress uwtable
define internal void @_ZZN8facebook5velox9functions12_GLOBAL__N_118FilterFunctionBase7doApplyINS0_9MapVectorEEEiRKNS0_17SelectivityVectorERKSt10shared_ptrIT_ERKS9_INS0_10BaseVectorEERKSt6vectorISF_SaISF_EERNS0_4exec7EvalCtxERN5boost13intrusive_ptrINS0_6BufferEEESU_SU_ENKUliE_clEi(ptr noundef nonnull align 8 dereferenceable(64) %this, i32 noundef %row) #0 align 2 {
entry:
  %this.addr = alloca ptr, align 8
  %row.addr = alloca i32, align 4
  %size = alloca i32, align 4
  %offset = alloca i32, align 4
  %i = alloca i32, align 4
  store ptr %this, ptr %this.addr, align 8
  store i32 %row, ptr %row.addr, align 4
  %this1 = load ptr, ptr %this.addr, align 8
  %0 = getelementptr inbounds %class.anon.224, ptr %this1, i32 0, i32 0
  %1 = load ptr, ptr %0, align 8
  %call = call noundef ptr @_ZNKSt19__shared_ptr_accessIN8facebook5velox9MapVectorELN9__gnu_cxx12_Lock_policyE2ELb0ELb0EEptEv(ptr noundef nonnull align 1 dereferenceable(1) %1) #16
  %2 = load i32, ptr %row.addr, align 4
  %vtable = load ptr, ptr %call, align 8
  %vfn = getelementptr inbounds ptr, ptr %vtable, i64 4
  %3 = load ptr, ptr %vfn, align 8
  %call2 = call noundef zeroext i1 %3(ptr noundef nonnull align 8 dereferenceable(99) %call, i32 noundef %2)
  br i1 %call2, label %if.then, label %if.end

if.then:                                          ; preds = %entry
  br label %for.end

if.end:                                           ; preds = %entry
  %4 = getelementptr inbounds %class.anon.224, ptr %this1, i32 0, i32 1
  %5 = load ptr, ptr %4, align 8
  %6 = load ptr, ptr %5, align 8
  %7 = load i32, ptr %row.addr, align 4
  %idxprom = sext i32 %7 to i64
  %arrayidx = getelementptr inbounds i32, ptr %6, i64 %idxprom
  %8 = load i32, ptr %arrayidx, align 4
  store i32 %8, ptr %size, align 4
  %9 = getelementptr inbounds %class.anon.224, ptr %this1, i32 0, i32 2
  %10 = load ptr, ptr %9, align 8
  %11 = load ptr, ptr %10, align 8
  %12 = load i32, ptr %row.addr, align 4
  %idxprom3 = sext i32 %12 to i64
  %arrayidx4 = getelementptr inbounds i32, ptr %11, i64 %idxprom3
  %13 = load i32, ptr %arrayidx4, align 4
  store i32 %13, ptr %offset, align 4
  %14 = getelementptr inbounds %class.anon.224, ptr %this1, i32 0, i32 4
  %15 = load ptr, ptr %14, align 8
  %16 = load i32, ptr %15, align 4
  %17 = getelementptr inbounds %class.anon.224, ptr %this1, i32 0, i32 3
  %18 = load ptr, ptr %17, align 8
  %19 = load ptr, ptr %18, align 8
  %20 = load i32, ptr %row.addr, align 4
  %idxprom5 = sext i32 %20 to i64
  %arrayidx6 = getelementptr inbounds i32, ptr %19, i64 %idxprom5
  store i32 %16, ptr %arrayidx6, align 4
  store i32 0, ptr %i, align 4
  br label %for.cond

for.cond:                                         ; preds = %for.inc, %if.end
  %21 = load i32, ptr %i, align 4
  %22 = load i32, ptr %size, align 4
  %cmp = icmp slt i32 %21, %22
  br i1 %cmp, label %for.body, label %for.end

for.body:                                         ; preds = %for.cond
  %23 = getelementptr inbounds %class.anon.224, ptr %this1, i32 0, i32 5
  %24 = load ptr, ptr %23, align 8
  %call7 = call noundef ptr @_ZN8facebook5velox4exec18LocalDecodedVector3getEv(ptr noundef nonnull align 8 dereferenceable(16) %24)
  %25 = load i32, ptr %offset, align 4
  %26 = load i32, ptr %i, align 4
  %add = add nsw i32 %25, %26
  %call8 = call noundef zeroext i1 @_ZNK8facebook5velox13DecodedVector8isNullAtEi(ptr noundef nonnull align 8 dereferenceable(120) %call7, i32 noundef %add)
  br i1 %call8, label %if.end19, label %land.lhs.true

land.lhs.true:                                    ; preds = %for.body
  %27 = getelementptr inbounds %class.anon.224, ptr %this1, i32 0, i32 5
  %28 = load ptr, ptr %27, align 8
  %call9 = call noundef ptr @_ZN8facebook5velox4exec18LocalDecodedVector3getEv(ptr noundef nonnull align 8 dereferenceable(16) %28)
  %29 = load i32, ptr %offset, align 4
  %30 = load i32, ptr %i, align 4
  %add10 = add nsw i32 %29, %30
  %call11 = call noundef zeroext i1 @_ZNK8facebook5velox13DecodedVector7valueAtIbEET_i(ptr noundef nonnull align 8 dereferenceable(120) %call9, i32 noundef %add10)
  br i1 %call11, label %if.then12, label %if.end19

if.then12:                                        ; preds = %land.lhs.true
  %31 = getelementptr inbounds %class.anon.224, ptr %this1, i32 0, i32 6
  %32 = load ptr, ptr %31, align 8
  %33 = load ptr, ptr %32, align 8
  %34 = load i32, ptr %row.addr, align 4
  %idxprom13 = sext i32 %34 to i64
  %arrayidx14 = getelementptr inbounds i32, ptr %33, i64 %idxprom13
  %35 = load i32, ptr %arrayidx14, align 4
  %inc = add nsw i32 %35, 1
  store i32 %inc, ptr %arrayidx14, align 4
  %36 = load i32, ptr %offset, align 4
  %37 = load i32, ptr %i, align 4
  %add15 = add nsw i32 %36, %37
  %38 = getelementptr inbounds %class.anon.224, ptr %this1, i32 0, i32 7
  %39 = load ptr, ptr %38, align 8
  %40 = load ptr, ptr %39, align 8
  %41 = getelementptr inbounds %class.anon.224, ptr %this1, i32 0, i32 4
  %42 = load ptr, ptr %41, align 8
  %43 = load i32, ptr %42, align 4
  %idxprom16 = sext i32 %43 to i64
  %arrayidx17 = getelementptr inbounds i32, ptr %40, i64 %idxprom16
  store i32 %add15, ptr %arrayidx17, align 4
  %44 = getelementptr inbounds %class.anon.224, ptr %this1, i32 0, i32 4
  %45 = load ptr, ptr %44, align 8
  %46 = load i32, ptr %45, align 4
  %inc18 = add nsw i32 %46, 1
  store i32 %inc18, ptr %45, align 4
  br label %if.end19

if.end19:                                         ; preds = %if.then12, %land.lhs.true, %for.body
  br label %for.inc

for.inc:                                          ; preds = %if.end19
  %47 = load i32, ptr %i, align 4
  %inc20 = add nsw i32 %47, 1
  store i32 %inc20, ptr %i, align 4
  br label %for.cond, !llvm.loop !86

for.end:                                          ; preds = %for.cond, %if.then
  ret void
}